target datalayout = "e-m:e-p270:32:32-p271:32:32-p272:64:64-i64:64-i128:128-f80:128-n8:16:32:64-S128"
target triple = "x86_64-pc-linux-gnu"

; Function Attrs: mustprogress nounwind uwtable
define linkonce_odr dso_local noundef float @_ZNSt14numeric_limitsIfE8infinityEv() #7 comdat align 2 {
  ret float 0x7FF0000000000000
}

; Function Attrs: mustprogress uwtable
define dso_local noundef zeroext i1 @_ZN3ozz9animation7offline11SampleTrackERKNS1_12RawAnimation10JointTrackEfPNS_4math9TransformE(ptr noundef nonnull align 8 dereferenceable(72) %0, float noundef %1, ptr noundef %2) #5 {
  %4 = alloca i1, align 1
  %5 = alloca ptr, align 8
  %6 = alloca float, align 4
  %7 = alloca ptr, align 8
  store ptr %0, ptr %5, align 8, !tbaa !28
  store float %1, ptr %6, align 4, !tbaa !9
  store ptr %2, ptr %7, align 8, !tbaa !30
  %8 = load ptr, ptr %5, align 8, !tbaa !28
  %9 = call noundef float @_ZNSt14numeric_limitsIfE8infinityEv() #15
  %10 = call noundef zeroext i1 @_ZNK3ozz9animation7offline12RawAnimation10JointTrack8ValidateEf(ptr noundef nonnull align 8 dereferenceable(72) %8, float noundef %9)
  br i1 %10, label %12, label %11

11:                                               ; preds = %3
  store i1 false, ptr %4, align 1
  br label %16

12:                                               ; preds = %3
  %13 = load ptr, ptr %5, align 8, !tbaa !28
  %14 = load float, ptr %6, align 4, !tbaa !9
  %15 = load ptr, ptr %7, align 8, !tbaa !30
  call void @_ZN3ozz9animation7offline12_GLOBAL__N_122SampleTrack_NoValidateERKNS1_12RawAnimation10JointTrackEfPNS_4math9TransformE(ptr noundef nonnull align 8 dereferenceable(72) %13, float noundef %14, ptr noundef %15)
  store i1 true, ptr %4, align 1
  br label %16

16:                                               ; preds = %12, %11
  %17 = load i1, ptr %4, align 1
  ret i1 %17
}