; Function Attrs: mustprogress uwtable
define dso_local noundef zeroext i1 @_ZN3ozz9animation7offline11SampleTrackERKNS1_12RawAnimation10JointTrackEfPNS_4math9TransformE(ptr noundef nonnull align 8 dereferenceable(72) %0, float noundef %1, ptr noundef writeonly captures(none) %2) local_unnamed_addr #3 {
  %4 = tail call noundef zeroext i1 @_ZNK3ozz9animation7offline12RawAnimation10JointTrack8ValidateEf(ptr noundef nonnull align 8 dereferenceable(72) %0, float noundef 0x7FF0000000000000)
  br i1 %4, label %5, label %6

5:                                                ; preds = %3
  tail call fastcc void @_ZN3ozz9animation7offline12_GLOBAL__N_122SampleTrack_NoValidateERKNS1_12RawAnimation10JointTrackEfPNS_4math9TransformE(ptr noundef nonnull align 8 dereferenceable(72) %0, float noundef %1, ptr noundef %2)
  br label %6

6:                                                ; preds = %3, %5
  ret i1 %4
}